target datalayout = "e-m:e-p270:32:32-p271:32:32-p272:64:64-i64:64-i128:128-f80:128-n8:16:32:64-S128"
target triple = "x86_64-pc-linux-gnu"

@.str.6 = private unnamed_addr constant [20 x i8] c"%s expected, got %s\00", align 1

; Function Attrs: nounwind uwtable
define dso_local i32 @luaL_typerror(ptr noundef %0, i32 noundef %1, ptr noundef %2) #0 {
  %4 = alloca ptr, align 8
  %5 = alloca i32, align 4
  %6 = alloca ptr, align 8
  %7 = alloca ptr, align 8
  store ptr %0, ptr %4, align 8, !tbaa !4
  store i32 %1, ptr %5, align 4, !tbaa !9
  store ptr %2, ptr %6, align 8, !tbaa !11
  call void @llvm.lifetime.start.p0(i64 8, ptr %7) #9
  %8 = load ptr, ptr %4, align 8, !tbaa !4
  %9 = load ptr, ptr %6, align 8, !tbaa !11
  %10 = load ptr, ptr %4, align 8, !tbaa !4
  %11 = load ptr, ptr %4, align 8, !tbaa !4
  %12 = load i32, ptr %5, align 4, !tbaa !9
  %13 = call i32 @lua_type(ptr noundef %11, i32 noundef %12)
  %14 = call ptr @lua_typename(ptr noundef %10, i32 noundef %13)
  %15 = call ptr (ptr, ptr, ...) @lua_pushfstring(ptr noundef %8, ptr noundef @.str.6, ptr noundef %9, ptr noundef %14)
  store ptr %15, ptr %7, align 8, !tbaa !11
  %16 = load ptr, ptr %4, align 8, !tbaa !4
  %17 = load i32, ptr %5, align 4, !tbaa !9
  %18 = load ptr, ptr %7, align 8, !tbaa !11
  %19 = call i32 @luaL_argerror(ptr noundef %16, i32 noundef %17, ptr noundef %18)
  call void @llvm.lifetime.end.p0(i64 8, ptr %7) #9
  ret i32 %19
}

; Function Attrs: nounwind uwtable
define internal void @tag_error(ptr noundef %0, i32 noundef %1, i32 noundef %2) #0 {
  %4 = alloca ptr, align 8
  %5 = alloca i32, align 4
  %6 = alloca i32, align 4
  store ptr %0, ptr %4, align 8, !tbaa !4
  store i32 %1, ptr %5, align 4, !tbaa !9
  store i32 %2, ptr %6, align 4, !tbaa !9
  %7 = load ptr, ptr %4, align 8, !tbaa !4
  %8 = load i32, ptr %5, align 4, !tbaa !9
  %9 = load ptr, ptr %4, align 8, !tbaa !4
  %10 = load i32, ptr %6, align 4, !tbaa !9
  %11 = call ptr @lua_typename(ptr noundef %9, i32 noundef %10)
  %12 = call i32 @luaL_typerror(ptr noundef %7, i32 noundef %8, ptr noundef %11)
  ret void
}

; Function Attrs: nounwind uwtable
define dso_local ptr @luaL_checklstring(ptr noundef %0, i32 noundef %1, ptr noundef %2) #0 {
  %4 = alloca ptr, align 8
  %5 = alloca i32, align 4
  %6 = alloca ptr, align 8
  %7 = alloca ptr, align 8
  store ptr %0, ptr %4, align 8, !tbaa !4
  store i32 %1, ptr %5, align 4, !tbaa !9
  store ptr %2, ptr %6, align 8, !tbaa !21
  call void @llvm.lifetime.start.p0(i64 8, ptr %7) #9
  %8 = load ptr, ptr %4, align 8, !tbaa !4
  %9 = load i32, ptr %5, align 4, !tbaa !9
  %10 = load ptr, ptr %6, align 8, !tbaa !21
  %11 = call ptr @lua_tolstring(ptr noundef %8, i32 noundef %9, ptr noundef %10)
  store ptr %11, ptr %7, align 8, !tbaa !11
  %12 = load ptr, ptr %7, align 8, !tbaa !11
  %13 = icmp ne ptr %12, null
  br i1 %13, label %17, label %14

14:                                               ; preds = %3
  %15 = load ptr, ptr %4, align 8, !tbaa !4
  %16 = load i32, ptr %5, align 4, !tbaa !9
  call void @tag_error(ptr noundef %15, i32 noundef %16, i32 noundef 4)
  br label %17

17:                                               ; preds = %14, %3
  %18 = load ptr, ptr %7, align 8, !tbaa !11
  call void @llvm.lifetime.end.p0(i64 8, ptr %7) #9
  ret ptr %18
}

; Function Attrs: nounwind uwtable
define dso_local ptr @luaL_optlstring(ptr noundef %0, i32 noundef %1, ptr noundef %2, ptr noundef %3) #0 {
  %5 = alloca ptr, align 8
  %6 = alloca ptr, align 8
  %7 = alloca i32, align 4
  %8 = alloca ptr, align 8
  %9 = alloca ptr, align 8
  store ptr %0, ptr %6, align 8, !tbaa !4
  store i32 %1, ptr %7, align 4, !tbaa !9
  store ptr %2, ptr %8, align 8, !tbaa !11
  store ptr %3, ptr %9, align 8, !tbaa !21
  %10 = load ptr, ptr %6, align 8, !tbaa !4
  %11 = load i32, ptr %7, align 4, !tbaa !9
  %12 = call i32 @lua_type(ptr noundef %10, i32 noundef %11)
  %13 = icmp sle i32 %12, 0
  br i1 %13, label %14, label %29

14:                                               ; preds = %4
  %15 = load ptr, ptr %9, align 8, !tbaa !21
  %16 = icmp ne ptr %15, null
  br i1 %16, label %17, label %27

17:                                               ; preds = %14
  %18 = load ptr, ptr %8, align 8, !tbaa !11
  %19 = icmp ne ptr %18, null
  br i1 %19, label %20, label %23

20:                                               ; preds = %17
  %21 = load ptr, ptr %8, align 8, !tbaa !11
  %22 = call i64 @strlen(ptr noundef %21) #10
  br label %24

23:                                               ; preds = %17
  br label %24

24:                                               ; preds = %23, %20
  %25 = phi i64 [ %22, %20 ], [ 0, %23 ]
  %26 = load ptr, ptr %9, align 8, !tbaa !21
  store i64 %25, ptr %26, align 8, !tbaa !23
  br label %27

27:                                               ; preds = %24, %14
  %28 = load ptr, ptr %8, align 8, !tbaa !11
  store ptr %28, ptr %5, align 8
  br label %34

29:                                               ; preds = %4
  %30 = load ptr, ptr %6, align 8, !tbaa !4
  %31 = load i32, ptr %7, align 4, !tbaa !9
  %32 = load ptr, ptr %9, align 8, !tbaa !21
  %33 = call ptr @luaL_checklstring(ptr noundef %30, i32 noundef %31, ptr noundef %32)
  store ptr %33, ptr %5, align 8
  br label %34

34:                                               ; preds = %29, %27
  %35 = load ptr, ptr %5, align 8
  ret ptr %35
}