; Function Attrs: nounwind uwtable
define dso_local ptr @luaL_optlstring(ptr noundef %0, i32 noundef %1, ptr noundef readonly captures(address_is_null, ret: address, provenance) %2, ptr noundef %3) local_unnamed_addr #0 {
  %5 = tail call i32 @lua_type(ptr noundef %0, i32 noundef %1) #17
  %6 = icmp slt i32 %5, 1
  br i1 %6, label %7, label %13

7:                                                ; preds = %4
  %.not = icmp eq ptr %3, null
  br i1 %.not, label %luaL_checklstring.exit, label %8

8:                                                ; preds = %7
  %.not12 = icmp eq ptr %2, null
  br i1 %.not12, label %11, label %9

9:                                                ; preds = %8
  %10 = tail call i64 @strlen(ptr noundef nonnull dereferenceable(1) %2) #18
  br label %11

11:                                               ; preds = %8, %9
  %12 = phi i64 [ %10, %9 ], [ 0, %8 ]
  store i64 %12, ptr %3, align 8, !tbaa !16
  br label %luaL_checklstring.exit

13:                                               ; preds = %4
  %14 = tail call ptr @lua_tolstring(ptr noundef %0, i32 noundef %1, ptr noundef %3) #17
  %.not.i = icmp eq ptr %14, null
  br i1 %.not.i, label %15, label %luaL_checklstring.exit

15:                                               ; preds = %13
  %16 = tail call ptr @lua_typename(ptr noundef %0, i32 noundef 4) #17
  %17 = tail call i32 @lua_type(ptr noundef %0, i32 noundef %1) #17
  %18 = tail call ptr @lua_typename(ptr noundef %0, i32 noundef %17) #17
  %19 = tail call ptr (ptr, ptr, ...) @lua_pushfstring(ptr noundef %0, ptr noundef nonnull @.str.6, ptr noundef %16, ptr noundef %18) #17
  %20 = tail call i32 @luaL_argerror(ptr noundef %0, i32 noundef %1, ptr noundef %19)
  br label %luaL_checklstring.exit

luaL_checklstring.exit:                           ; preds = %15, %13, %7, %11
  %.0 = phi ptr [ %2, %11 ], [ %2, %7 ], [ %14, %13 ], [ null, %15 ]
  ret ptr %.0
}